; Function Attrs: mustprogress nounwind uwtable
define hidden void @_ZN9metaspace12ChunkManager12return_chunkEPNS_9MetachunkE(ptr noundef nonnull align 8 dereferenceable(376) %0, ptr noundef %1) local_unnamed_addr #0 align 2 {
  %3 = load ptr, ptr @Metaspace_lock, align 8
  %.not.i.i = icmp eq ptr %3, null
  br i1 %.not.i.i, label %_ZN11MutexLockerC2EP5MutexNS0_18SafepointCheckFlagE.exit.thread, label %4

_ZN11MutexLockerC2EP5MutexNS0_18SafepointCheckFlagE.exit.thread: ; preds = %2
  tail call void @_ZN9metaspace12ChunkManager19return_chunk_lockedEPNS_9MetachunkE(ptr noundef nonnull align 8 dereferenceable(376) %0, ptr noundef %1)
  br label %_ZN11MutexLockerD2Ev.exit

4:                                                ; preds = %2
  tail call void @_ZN5Mutex28lock_without_safepoint_checkEv(ptr noundef nonnull align 8 dereferenceable(104) %3) #10
  tail call void @_ZN9metaspace12ChunkManager19return_chunk_lockedEPNS_9MetachunkE(ptr noundef nonnull align 8 dereferenceable(376) %0, ptr noundef %1)
  tail call void @_ZN5Mutex6unlockEv(ptr noundef nonnull align 8 dereferenceable(104) %3) #10
  br label %_ZN11MutexLockerD2Ev.exit

_ZN11MutexLockerD2Ev.exit:                        ; preds = %_ZN11MutexLockerC2EP5MutexNS0_18SafepointCheckFlagE.exit.thread, %4
  ret void
}